; Function Attrs: mustprogress nounwind uwtable
define dso_local void @_ZN5clang4ento33createSarifHTMLDiagnosticConsumerENS0_29PathDiagnosticConsumerOptionsERSt6vectorIPNS0_22PathDiagnosticConsumerESaIS4_EERKNSt7__cxx1112basic_stringIcSt11char_traitsIcESaIcEEERKNS_12PreprocessorERKNS_8cross_tu27CrossTranslationUnitContextERKNS_21MacroExpansionContextE(ptr noundef nonnull %0, ptr noundef nonnull align 8 dereferenceable(24) %1, ptr noundef nonnull align 8 dereferenceable(32) %2, ptr noundef nonnull align 8 dereferenceable(3288) %3, ptr noundef nonnull align 1 %4, ptr noundef nonnull align 8 dereferenceable(72) %5) local_unnamed_addr #0 {
  %7 = alloca %"struct.std::__cxx11::basic_string<char>::__sv_wrapper", align 8
  %8 = alloca %"struct.clang::ento::PathDiagnosticConsumerOptions", align 8
  %9 = alloca %"class.std::__cxx11::basic_string", align 8
  %10 = alloca %"class.std::allocator", align 1
  %11 = alloca %"struct.clang::ento::PathDiagnosticConsumerOptions", align 8
  %12 = alloca %"struct.clang::ento::PathDiagnosticConsumerOptions", align 8
  call void @_ZNSt7__cxx1112basic_stringIcSt11char_traitsIcESaIcEEC1ERKS4_(ptr noundef nonnull align 8 dereferenceable(38) %8, ptr noundef nonnull align 8 dereferenceable(38) %0) #18
  %13 = getelementptr inbounds nuw i8, ptr %8, i64 32
  %14 = getelementptr inbounds nuw i8, ptr %0, i64 32
  call void @llvm.memcpy.p0.p0.i64(ptr noundef nonnull align 8 dereferenceable(6) %13, ptr noundef nonnull align 8 dereferenceable(6) %14, i64 6, i1 false)
  %15 = call noundef ptr @_ZNKSt7__cxx1112basic_stringIcSt11char_traitsIcESaIcEE4dataEv(ptr noundef nonnull align 8 dereferenceable(32) %2) #18
  %16 = call noundef i64 @_ZNKSt7__cxx1112basic_stringIcSt11char_traitsIcESaIcEE6lengthEv(ptr noundef nonnull align 8 dereferenceable(32) %2) #18
  %17 = call { ptr, i64 } @_ZN4llvm3sys4path11parent_pathENS_9StringRefENS1_5StyleE(ptr %15, i64 %16, i32 noundef 0) #18
  %18 = extractvalue { ptr, i64 } %17, 0
  %19 = extractvalue { ptr, i64 } %17, 1
  call void @_ZNSaIcEC1Ev(ptr noundef nonnull align 1 dereferenceable(1) %10) #18
  call void @llvm.lifetime.start.p0(i64 16, ptr nonnull %7)
  %20 = call { i64, ptr } @_ZNSt7__cxx1112basic_stringIcSt11char_traitsIcESaIcEE17_S_to_string_viewESt17basic_string_viewIcS2_E(i64 %19, ptr %18) #18
  %21 = extractvalue { i64, ptr } %20, 0
  %22 = extractvalue { i64, ptr } %20, 1
  call void @_ZNSt7__cxx1112basic_stringIcSt11char_traitsIcESaIcEE12__sv_wrapperC1ESt17basic_string_viewIcS2_E(ptr noundef nonnull align 8 dereferenceable(16) %7, i64 %21, ptr %22) #18
  %23 = load i64, ptr %7, align 8
  %24 = getelementptr inbounds nuw i8, ptr %7, i64 8
  %25 = load ptr, ptr %24, align 8
  call void @_ZNSt7__cxx1112basic_stringIcSt11char_traitsIcESaIcEEC2ENS4_12__sv_wrapperERKS3_(ptr noundef nonnull align 8 dereferenceable(32) %9, i64 %23, ptr %25, ptr noundef nonnull align 1 dereferenceable(1) %10) #18
  call void @llvm.lifetime.end.p0(i64 16, ptr nonnull %7)
  call void @_ZN5clang4ento28createHTMLDiagnosticConsumerENS0_29PathDiagnosticConsumerOptionsERSt6vectorIPNS0_22PathDiagnosticConsumerESaIS4_EERKNSt7__cxx1112basic_stringIcSt11char_traitsIcESaIcEEERKNS_12PreprocessorERKNS_8cross_tu27CrossTranslationUnitContextERKNS_21MacroExpansionContextE(ptr noundef nonnull %8, ptr noundef nonnull align 8 dereferenceable(24) %1, ptr noundef nonnull align 8 dereferenceable(32) %9, ptr noundef nonnull align 8 dereferenceable(3288) %3, ptr noundef nonnull align 1 %4, ptr noundef nonnull align 8 dereferenceable(72) %5)
  call void @_ZNSt7__cxx1112basic_stringIcSt11char_traitsIcESaIcEED1Ev(ptr noundef nonnull align 8 dereferenceable(32) %9) #18
  call void @_ZNSaIcED1Ev(ptr noundef nonnull align 1 dereferenceable(1) %10) #18
  call void @_ZNSt7__cxx1112basic_stringIcSt11char_traitsIcESaIcEED1Ev(ptr noundef nonnull align 8 dereferenceable(38) %8) #18
  call void @_ZNSt7__cxx1112basic_stringIcSt11char_traitsIcESaIcEEC1ERKS4_(ptr noundef nonnull align 8 dereferenceable(38) %11, ptr noundef nonnull align 8 dereferenceable(38) %0) #18
  %26 = getelementptr inbounds nuw i8, ptr %11, i64 32
  call void @llvm.memcpy.p0.p0.i64(ptr noundef nonnull align 8 dereferenceable(6) %26, ptr noundef nonnull align 8 dereferenceable(6) %14, i64 6, i1 false)
  call void @_ZN5clang4ento29createSarifDiagnosticConsumerENS0_29PathDiagnosticConsumerOptionsERSt6vectorIPNS0_22PathDiagnosticConsumerESaIS4_EERKNSt7__cxx1112basic_stringIcSt11char_traitsIcESaIcEEERKNS_12PreprocessorERKNS_8cross_tu27CrossTranslationUnitContextERKNS_21MacroExpansionContextE(ptr noundef nonnull %11, ptr noundef nonnull align 8 dereferenceable(24) %1, ptr noundef nonnull align 8 dereferenceable(32) %2, ptr noundef nonnull align 8 dereferenceable(3288) %3, ptr noundef nonnull align 1 %4, ptr noundef nonnull align 8 dereferenceable(72) %5) #18
  call void @_ZNSt7__cxx1112basic_stringIcSt11char_traitsIcESaIcEED1Ev(ptr noundef nonnull align 8 dereferenceable(38) %11) #18
  call void @_ZNSt7__cxx1112basic_stringIcSt11char_traitsIcESaIcEEC1EOS4_(ptr noundef nonnull align 8 dereferenceable(38) %12, ptr noundef nonnull align 8 dereferenceable(38) %0) #18
  %27 = getelementptr inbounds nuw i8, ptr %12, i64 32
  call void @llvm.memcpy.p0.p0.i64(ptr noundef nonnull align 8 dereferenceable(6) %27, ptr noundef nonnull align 8 dereferenceable(6) %14, i64 6, i1 false)
  call void @_ZN5clang4ento39createTextMinimalPathDiagnosticConsumerENS0_29PathDiagnosticConsumerOptionsERSt6vectorIPNS0_22PathDiagnosticConsumerESaIS4_EERKNSt7__cxx1112basic_stringIcSt11char_traitsIcESaIcEEERKNS_12PreprocessorERKNS_8cross_tu27CrossTranslationUnitContextERKNS_21MacroExpansionContextE(ptr noundef nonnull %12, ptr noundef nonnull align 8 dereferenceable(24) %1, ptr noundef nonnull align 8 dereferenceable(32) %2, ptr noundef nonnull align 8 dereferenceable(3288) %3, ptr noundef nonnull align 1 %4, ptr noundef nonnull align 8 dereferenceable(72) %5) #18
  call void @_ZNSt7__cxx1112basic_stringIcSt11char_traitsIcESaIcEED1Ev(ptr noundef nonnull align 8 dereferenceable(38) %12) #18
  ret void
}